target datalayout = "e-m:e-p270:32:32-p271:32:32-p272:64:64-i64:64-i128:128-f80:128-n8:16:32:64-S128"
target triple = "x86_64-pc-linux-gnu"

%struct._zend_executor_globals = type { %struct._zval_struct, %struct._zval_struct, [32 x ptr], ptr, ptr, %struct._zend_array, %struct._zend_array, ptr, i32, i32, ptr, ptr, ptr, ptr, ptr, ptr, i64, ptr, ptr, i32, i32, i64, i32, i32, i32, i8, i8, %struct.zend_atomic_bool_s, %struct.zend_atomic_bool_s, ptr, i64, ptr, ptr, %struct._zend_array, %struct._zend_array, i32, i8, %struct._zval_struct, %struct._zval_struct, %struct._zend_stack, %struct._zend_stack, %struct._zend_stack, ptr, i32, i32, i64, ptr, ptr, ptr, %struct._zend_objects_store, ptr, ptr, ptr, [3 x %struct._zend_op], ptr, i8, i8, i64, i32, i32, ptr, [16 x %struct._HashTableIterator], ptr, %union._zend_function, %struct._zend_op, %struct._zend_array, i64, %struct.zend_get_gc_buffer, ptr, ptr, ptr, i64, i8, i32, ptr, ptr, i64, %struct._zend_call_stack, i64, i64, [6 x ptr] }
%struct.zend_atomic_bool_s = type { i8 }
%struct._zval_struct = type { %union._zend_value, %union.anon, %union.anon.2 }
%union._zend_value = type { i64 }
%union.anon = type { i32 }
%union.anon.2 = type { i32 }
%struct._zend_stack = type { i32, i32, i32, ptr }
%struct._zend_objects_store = type { ptr, i32, i32, i32 }
%struct._HashTableIterator = type { ptr, i32, i32 }
%union._zend_function = type { %struct._zend_op_array }
%struct._zend_op_array = type { i8, [3 x i8], i32, ptr, ptr, ptr, i32, i32, ptr, ptr, ptr, ptr, i32, i32, i32, i32, ptr, ptr, ptr, ptr, ptr, i32, i32, ptr, ptr, ptr, i32, i32, i32, i32, ptr, ptr, [6 x ptr] }
%struct._zend_op = type { ptr, %union._znode_op, %union._znode_op, %union._znode_op, i32, i32, i8, i8, i8, i8 }
%union._znode_op = type { i32 }
%struct._zend_array = type { %struct._zend_refcounted_h, %union.anon.4, i32, %union.anon.6, i32, i32, i32, i32, i64, ptr }
%struct._zend_refcounted_h = type { i32, %union.anon.3 }
%union.anon.3 = type { i32 }
%union.anon.4 = type { i32 }
%union.anon.6 = type { ptr }
%struct.zend_get_gc_buffer = type { ptr, ptr, ptr }
%struct._zend_call_stack = type { ptr, i64 }
%struct._zend_string = type { %struct._zend_refcounted_h, i64, i64, [1 x i8] }
%struct._dom_object = type { ptr, ptr, ptr, %struct._zend_object }
%struct._zend_object = type { %struct._zend_refcounted_h, i32, ptr, ptr, ptr, [1 x %struct._zval_struct] }
%struct._zend_execute_data = type { ptr, ptr, ptr, ptr, %struct._zval_struct, ptr, ptr, ptr, ptr }
%struct._zend_class_entry = type { i8, ptr, %union.anon.8, i32, i32, i32, i32, ptr, ptr, ptr, %struct._zend_array, %struct._zend_array, %struct._zend_array, ptr, ptr, ptr, ptr, ptr, ptr, ptr, ptr, ptr, ptr, ptr, ptr, ptr, ptr, ptr, ptr, ptr, ptr, ptr, %union.anon.9, ptr, ptr, ptr, ptr, i32, i32, %union.anon.10, ptr, ptr, ptr, ptr, i32, ptr, ptr, %union.anon.11 }
%union.anon.8 = type { ptr }
%union.anon.9 = type { ptr }
%union.anon.10 = type { ptr }
%union.anon.11 = type { %struct.anon.12 }
%struct.anon.12 = type { ptr, i32, i32 }
%struct._php_libxml_node_ptr = type { ptr, i32, ptr }
%struct._xmlNode = type { ptr, i32, ptr, ptr, ptr, ptr, ptr, ptr, ptr, ptr, ptr, ptr, ptr, ptr, i16, i16 }
%struct._php_libxml_ref_obj = type { ptr, ptr, %struct.php_libxml_cache_tag, i32, i8 }
%struct.php_libxml_cache_tag = type { i64 }
%struct._php_libxml_node_object = type { ptr, ptr, %struct._zend_object }

@executor_globals = external global %struct._zend_executor_globals, align 8
@.str.2 = private unnamed_addr constant [18 x i8] c"Couldn't fetch %s\00", align 1
@dom_node_class_entry = external global ptr, align 8
@.str.16 = private unnamed_addr constant [2 x i8] c"O\00", align 1

; Function Attrs: nounwind uwtable
define hidden zeroext i1 @php_dom_adopt_node(ptr noundef %0, ptr noundef %1, ptr noundef %2) #0 {
  %4 = alloca ptr, align 8
  %5 = alloca ptr, align 8
  %6 = alloca ptr, align 8
  %7 = alloca ptr, align 8
  %8 = alloca ptr, align 8
  %9 = alloca i1, align 1
  %10 = alloca ptr, align 8
  %11 = alloca ptr, align 8
  %12 = alloca ptr, align 8
  %13 = alloca i32, align 4
  store ptr %0, ptr %10, align 8
  store ptr %1, ptr %11, align 8
  store ptr %2, ptr %12, align 8
  %14 = load ptr, ptr %10, align 8
  %15 = getelementptr inbounds %struct._xmlNode, ptr %14, i32 0, i32 8
  %16 = load ptr, ptr %15, align 8
  store ptr %16, ptr %5, align 8
  %17 = load ptr, ptr %5, align 8
  %18 = icmp ne ptr %17, null
  br i1 %18, label %19, label %45

19:                                               ; preds = %3
  %20 = load ptr, ptr %5, align 8
  %21 = load ptr, ptr %20, align 8
  %22 = icmp ne ptr %21, null
  br i1 %22, label %23, label %45

23:                                               ; preds = %19
  %24 = load ptr, ptr %5, align 8
  %25 = load ptr, ptr %24, align 8
  store ptr %25, ptr %6, align 8
  %26 = load ptr, ptr %6, align 8
  %27 = getelementptr inbounds %struct._php_libxml_node_ptr, ptr %26, i32 0, i32 2
  %28 = load ptr, ptr %27, align 8
  store ptr %28, ptr %7, align 8
  %29 = load ptr, ptr %7, align 8
  %30 = icmp ne ptr %29, null
  br i1 %30, label %31, label %44

31:                                               ; preds = %23
  %32 = load ptr, ptr %7, align 8
  %33 = getelementptr inbounds %struct._php_libxml_node_object, ptr %32, i32 0, i32 1
  %34 = load ptr, ptr %33, align 8
  store ptr %34, ptr %4, align 8
  %35 = load ptr, ptr %4, align 8
  %36 = icmp ne ptr %35, null
  br i1 %36, label %38, label %37

37:                                               ; preds = %31
  br label %43

38:                                               ; preds = %31
  %39 = load ptr, ptr %4, align 8
  %40 = getelementptr inbounds %struct._php_libxml_ref_obj, ptr %39, i32 0, i32 2
  %41 = load i64, ptr %40, align 8
  %42 = add i64 %41, 1
  store i64 %42, ptr %40, align 8
  br label %43

43:                                               ; preds = %38, %37
  br label %44

44:                                               ; preds = %43, %23
  br label %45

45:                                               ; preds = %44, %19, %3
  %46 = load ptr, ptr %10, align 8
  %47 = getelementptr inbounds %struct._xmlNode, ptr %46, i32 0, i32 8
  %48 = load ptr, ptr %47, align 8
  %49 = load ptr, ptr %12, align 8
  %50 = icmp ne ptr %48, %49
  br i1 %50, label %51, label %83

51:                                               ; preds = %45
  %52 = load ptr, ptr %11, align 8
  %53 = getelementptr inbounds %struct._dom_object, ptr %52, i32 0, i32 1
  %54 = load ptr, ptr %53, align 8
  store ptr %54, ptr %8, align 8
  %55 = load ptr, ptr %8, align 8
  %56 = icmp ne ptr %55, null
  br i1 %56, label %58, label %57

57:                                               ; preds = %51
  br label %63

58:                                               ; preds = %51
  %59 = load ptr, ptr %8, align 8
  %60 = getelementptr inbounds %struct._php_libxml_ref_obj, ptr %59, i32 0, i32 2
  %61 = load i64, ptr %60, align 8
  %62 = add i64 %61, 1
  store i64 %62, ptr %60, align 8
  br label %63

63:                                               ; preds = %58, %57
  %64 = load ptr, ptr %10, align 8
  %65 = getelementptr inbounds %struct._xmlNode, ptr %64, i32 0, i32 8
  %66 = load ptr, ptr %65, align 8
  %67 = load ptr, ptr %10, align 8
  %68 = load ptr, ptr %12, align 8
  %69 = call i32 @xmlDOMWrapAdoptNode(ptr noundef null, ptr noundef %66, ptr noundef %67, ptr noundef %68, ptr noundef null, i32 noundef 0)
  store i32 %69, ptr %13, align 4
  %70 = load i32, ptr %13, align 4
  %71 = icmp ne i32 %70, 0
  %72 = xor i1 %71, true
  %73 = xor i1 %72, true
  %74 = zext i1 %73 to i32
  %75 = sext i32 %74 to i64
  %76 = icmp ne i64 %75, 0
  br i1 %76, label %77, label %78

77:                                               ; preds = %63
  store i1 false, ptr %9, align 1
  br label %86

78:                                               ; preds = %63
  %79 = load ptr, ptr %10, align 8
  %80 = load ptr, ptr %11, align 8
  %81 = getelementptr inbounds %struct._dom_object, ptr %80, i32 0, i32 1
  %82 = load ptr, ptr %81, align 8
  call void @php_dom_transfer_document_ref(ptr noundef %79, ptr noundef %82)
  br label %85

83:                                               ; preds = %45
  %84 = load ptr, ptr %10, align 8
  call void @xmlUnlinkNode(ptr noundef %84)
  br label %85

85:                                               ; preds = %83, %78
  store i1 true, ptr %9, align 1
  br label %86

86:                                               ; preds = %85, %77
  %87 = load i1, ptr %9, align 1
  ret i1 %87
}

; Function Attrs: nounwind uwtable
define internal ptr @php_dom_obj_from_obj(ptr noundef %0) #0 {
  %2 = alloca ptr, align 8
  store ptr %0, ptr %2, align 8
  %3 = load ptr, ptr %2, align 8
  %4 = getelementptr inbounds i8, ptr %3, i64 -24
  ret ptr %4
}

; Function Attrs: nounwind uwtable
define hidden void @zim_DOM_Document_adoptNode(ptr noundef %0, ptr noundef %1) #0 {
  %3 = alloca ptr, align 8
  %4 = alloca ptr, align 8
  %5 = alloca ptr, align 8
  %6 = alloca ptr, align 8
  %7 = alloca ptr, align 8
  %8 = alloca ptr, align 8
  %9 = alloca ptr, align 8
  %10 = alloca ptr, align 8
  %11 = alloca ptr, align 8
  %12 = alloca ptr, align 8
  %13 = alloca ptr, align 8
  store ptr %0, ptr %4, align 8
  store ptr %1, ptr %5, align 8
  %14 = load ptr, ptr %4, align 8
  %15 = getelementptr inbounds %struct._zend_execute_data, ptr %14, i32 0, i32 4
  %16 = getelementptr inbounds %struct._zval_struct, ptr %15, i32 0, i32 2
  %17 = load i32, ptr %16, align 4
  %18 = load ptr, ptr @dom_node_class_entry, align 8
  %19 = call i32 (i32, ptr, ...) @zend_parse_parameters(i32 noundef %17, ptr noundef @.str.16, ptr noundef %6, ptr noundef %18)
  %20 = icmp eq i32 %19, -1
  br i1 %20, label %21, label %26

21:                                               ; preds = %2
  br label %22

22:                                               ; preds = %21
  %23 = load ptr, ptr getelementptr inbounds (%struct._zend_executor_globals, ptr @executor_globals, i32 0, i32 50), align 8
  %24 = icmp ne ptr %23, null
  call void @llvm.assume(i1 %24)
  br label %169

25:                                               ; No predecessors!
  br label %26

26:                                               ; preds = %25, %2
  %27 = load ptr, ptr %6, align 8
  %28 = getelementptr inbounds %struct._zval_struct, ptr %27, i32 0, i32 0
  %29 = load ptr, ptr %28, align 8
  %30 = call ptr @php_dom_obj_from_obj(ptr noundef %29)
  store ptr %30, ptr %8, align 8
  %31 = load ptr, ptr %8, align 8
  %32 = getelementptr inbounds %struct._dom_object, ptr %31, i32 0, i32 0
  %33 = load ptr, ptr %32, align 8
  %34 = icmp eq ptr %33, null
  %35 = xor i1 %34, true
  %36 = xor i1 %35, true
  %37 = zext i1 %36 to i32
  %38 = sext i32 %37 to i64
  %39 = icmp ne i64 %38, 0
  br i1 %39, label %40, label %53

40:                                               ; preds = %26
  %41 = load ptr, ptr %8, align 8
  %42 = getelementptr inbounds %struct._dom_object, ptr %41, i32 0, i32 3
  %43 = getelementptr inbounds %struct._zend_object, ptr %42, i32 0, i32 2
  %44 = load ptr, ptr %43, align 8
  %45 = getelementptr inbounds %struct._zend_class_entry, ptr %44, i32 0, i32 1
  %46 = load ptr, ptr %45, align 8
  %47 = getelementptr inbounds %struct._zend_string, ptr %46, i32 0, i32 3
  %48 = getelementptr inbounds [1 x i8], ptr %47, i64 0, i64 0
  call void (ptr, ptr, ...) @zend_throw_error(ptr noundef null, ptr noundef @.str.2, ptr noundef %48)
  br label %49

49:                                               ; preds = %40
  %50 = load ptr, ptr getelementptr inbounds (%struct._zend_executor_globals, ptr @executor_globals, i32 0, i32 50), align 8
  %51 = icmp ne ptr %50, null
  call void @llvm.assume(i1 %51)
  br label %169

52:                                               ; No predecessors!
  br label %53

53:                                               ; preds = %52, %26
  %54 = load ptr, ptr %8, align 8
  %55 = getelementptr inbounds %struct._dom_object, ptr %54, i32 0, i32 0
  %56 = load ptr, ptr %55, align 8
  %57 = getelementptr inbounds %struct._php_libxml_node_ptr, ptr %56, i32 0, i32 0
  %58 = load ptr, ptr %57, align 8
  store ptr %58, ptr %7, align 8
  %59 = load ptr, ptr %7, align 8
  %60 = getelementptr inbounds %struct._xmlNode, ptr %59, i32 0, i32 1
  %61 = load i32, ptr %60, align 8
  %62 = icmp eq i32 %61, 9
  br i1 %62, label %88, label %63

63:                                               ; preds = %53
  %64 = load ptr, ptr %7, align 8
  %65 = getelementptr inbounds %struct._xmlNode, ptr %64, i32 0, i32 1
  %66 = load i32, ptr %65, align 8
  %67 = icmp eq i32 %66, 13
  br i1 %67, label %88, label %68

68:                                               ; preds = %63
  %69 = load ptr, ptr %7, align 8
  %70 = getelementptr inbounds %struct._xmlNode, ptr %69, i32 0, i32 1
  %71 = load i32, ptr %70, align 8
  %72 = icmp eq i32 %71, 10
  br i1 %72, label %88, label %73

73:                                               ; preds = %68
  %74 = load ptr, ptr %7, align 8
  %75 = getelementptr inbounds %struct._xmlNode, ptr %74, i32 0, i32 1
  %76 = load i32, ptr %75, align 8
  %77 = icmp eq i32 %76, 14
  br i1 %77, label %88, label %78

78:                                               ; preds = %73
  %79 = load ptr, ptr %7, align 8
  %80 = getelementptr inbounds %struct._xmlNode, ptr %79, i32 0, i32 1
  %81 = load i32, ptr %80, align 8
  %82 = icmp eq i32 %81, 6
  br i1 %82, label %88, label %83

83:                                               ; preds = %78
  %84 = load ptr, ptr %7, align 8
  %85 = getelementptr inbounds %struct._xmlNode, ptr %84, i32 0, i32 1
  %86 = load i32, ptr %85, align 8
  %87 = icmp eq i32 %86, 12
  br label %88

88:                                               ; preds = %83, %78, %73, %68, %63, %53
  %89 = phi i1 [ true, %78 ], [ true, %73 ], [ true, %68 ], [ true, %63 ], [ true, %53 ], [ %87, %83 ]
  %90 = xor i1 %89, true
  %91 = xor i1 %90, true
  %92 = zext i1 %91 to i32
  %93 = sext i32 %92 to i64
  %94 = icmp ne i64 %93, 0
  br i1 %94, label %95, label %106

95:                                               ; preds = %88
  %96 = load ptr, ptr %8, align 8
  %97 = getelementptr inbounds %struct._dom_object, ptr %96, i32 0, i32 1
  %98 = load ptr, ptr %97, align 8
  %99 = call i32 @dom_get_strict_error(ptr noundef %98)
  call void @php_dom_throw_error(i32 noundef 9, i32 noundef %99)
  br label %100

100:                                              ; preds = %95
  br label %101

101:                                              ; preds = %100
  %102 = load ptr, ptr %5, align 8
  %103 = getelementptr inbounds %struct._zval_struct, ptr %102, i32 0, i32 1
  store i32 2, ptr %103, align 8
  br label %104

104:                                              ; preds = %101
  br label %169

105:                                              ; No predecessors!
  br label %106

106:                                              ; preds = %105, %88
  %107 = load ptr, ptr %4, align 8
  %108 = getelementptr inbounds %struct._zend_execute_data, ptr %107, i32 0, i32 4
  store ptr %108, ptr %11, align 8
  %109 = load ptr, ptr %11, align 8
  %110 = getelementptr inbounds %struct._zval_struct, ptr %109, i32 0, i32 0
  %111 = load ptr, ptr %110, align 8
  %112 = call ptr @php_dom_obj_from_obj(ptr noundef %111)
  store ptr %112, ptr %10, align 8
  %113 = load ptr, ptr %10, align 8
  %114 = getelementptr inbounds %struct._dom_object, ptr %113, i32 0, i32 0
  %115 = load ptr, ptr %114, align 8
  %116 = icmp eq ptr %115, null
  %117 = xor i1 %116, true
  %118 = xor i1 %117, true
  %119 = zext i1 %118 to i32
  %120 = sext i32 %119 to i64
  %121 = icmp ne i64 %120, 0
  br i1 %121, label %122, label %135

122:                                              ; preds = %106
  %123 = load ptr, ptr %10, align 8
  %124 = getelementptr inbounds %struct._dom_object, ptr %123, i32 0, i32 3
  %125 = getelementptr inbounds %struct._zend_object, ptr %124, i32 0, i32 2
  %126 = load ptr, ptr %125, align 8
  %127 = getelementptr inbounds %struct._zend_class_entry, ptr %126, i32 0, i32 1
  %128 = load ptr, ptr %127, align 8
  %129 = getelementptr inbounds %struct._zend_string, ptr %128, i32 0, i32 3
  %130 = getelementptr inbounds [1 x i8], ptr %129, i64 0, i64 0
  call void (ptr, ptr, ...) @zend_throw_error(ptr noundef null, ptr noundef @.str.2, ptr noundef %130)
  br label %131

131:                                              ; preds = %122
  %132 = load ptr, ptr getelementptr inbounds (%struct._zend_executor_globals, ptr @executor_globals, i32 0, i32 50), align 8
  %133 = icmp ne ptr %132, null
  call void @llvm.assume(i1 %133)
  br label %169

134:                                              ; No predecessors!
  br label %135

135:                                              ; preds = %134, %106
  %136 = load ptr, ptr %10, align 8
  %137 = getelementptr inbounds %struct._dom_object, ptr %136, i32 0, i32 0
  %138 = load ptr, ptr %137, align 8
  %139 = getelementptr inbounds %struct._php_libxml_node_ptr, ptr %138, i32 0, i32 0
  %140 = load ptr, ptr %139, align 8
  store ptr %140, ptr %9, align 8
  %141 = load ptr, ptr %7, align 8
  %142 = load ptr, ptr %10, align 8
  %143 = load ptr, ptr %9, align 8
  %144 = call zeroext i1 @php_dom_adopt_node(ptr noundef %141, ptr noundef %142, ptr noundef %143)
  br i1 %144, label %152, label %145

145:                                              ; preds = %135
  br label %146

146:                                              ; preds = %145
  br label %147

147:                                              ; preds = %146
  %148 = load ptr, ptr %5, align 8
  %149 = getelementptr inbounds %struct._zval_struct, ptr %148, i32 0, i32 1
  store i32 2, ptr %149, align 8
  br label %150

150:                                              ; preds = %147
  br label %169

151:                                              ; No predecessors!
  br label %152

152:                                              ; preds = %151, %135
  br label %153

153:                                              ; preds = %152
  br label %154

154:                                              ; preds = %153
  %155 = load ptr, ptr %5, align 8
  store ptr %155, ptr %12, align 8
  %156 = load ptr, ptr %8, align 8
  %157 = getelementptr inbounds %struct._dom_object, ptr %156, i32 0, i32 3
  store ptr %157, ptr %13, align 8
  %158 = load ptr, ptr %13, align 8
  %159 = getelementptr inbounds %struct._zend_object, ptr %158, i32 0, i32 0
  store ptr %159, ptr %3, align 8
  %160 = load ptr, ptr %3, align 8
  %161 = load i32, ptr %160, align 4
  %162 = add i32 %161, 1
  store i32 %162, ptr %160, align 4
  %163 = load ptr, ptr %13, align 8
  %164 = load ptr, ptr %12, align 8
  %165 = getelementptr inbounds %struct._zval_struct, ptr %164, i32 0, i32 0
  store ptr %163, ptr %165, align 8
  %166 = load ptr, ptr %12, align 8
  %167 = getelementptr inbounds %struct._zval_struct, ptr %166, i32 0, i32 1
  store i32 776, ptr %167, align 8
  br label %168

168:                                              ; preds = %154
  br label %169

169:                                              ; preds = %168, %150, %131, %104, %49, %22
  ret void
}