; Function Attrs: nounwind uwtable
define hidden void @zim_DOM_Document_adoptNode(ptr nocapture noundef readonly %0, ptr nocapture noundef writeonly %1) local_unnamed_addr #0 {
  %3 = alloca ptr, align 8
  %4 = getelementptr inbounds i8, ptr %0, i64 32
  %5 = getelementptr inbounds i8, ptr %0, i64 44
  %6 = load i32, ptr %5, align 4
  %7 = load ptr, ptr @dom_node_class_entry, align 8
  %8 = call i32 (i32, ptr, ...) @zend_parse_parameters(i32 noundef %6, ptr noundef nonnull @.str.16, ptr noundef nonnull %3, ptr noundef %7) #10
  %9 = icmp eq i32 %8, -1
  br i1 %9, label %10, label %13

10:                                               ; preds = %2
  %11 = load ptr, ptr getelementptr inbounds (%struct._zend_executor_globals, ptr @executor_globals, i64 0, i32 50), align 8
  %12 = icmp ne ptr %11, null
  call void @llvm.assume(i1 %12)
  br label %84

13:                                               ; preds = %2
  %14 = load ptr, ptr %3, align 8
  %15 = load ptr, ptr %14, align 8
  %16 = getelementptr inbounds i8, ptr %15, i64 -24
  %17 = load ptr, ptr %16, align 8
  %18 = icmp eq ptr %17, null
  br i1 %18, label %19, label %27

19:                                               ; preds = %13
  %20 = getelementptr inbounds i8, ptr %15, i64 16
  %21 = load ptr, ptr %20, align 8
  %22 = getelementptr inbounds i8, ptr %21, i64 8
  %23 = load ptr, ptr %22, align 8
  %24 = getelementptr inbounds i8, ptr %23, i64 24
  call void (ptr, ptr, ...) @zend_throw_error(ptr noundef null, ptr noundef nonnull @.str.2, ptr noundef nonnull %24) #10
  %25 = load ptr, ptr getelementptr inbounds (%struct._zend_executor_globals, ptr @executor_globals, i64 0, i32 50), align 8
  %26 = icmp ne ptr %25, null
  call void @llvm.assume(i1 %26)
  br label %84

27:                                               ; preds = %13
  %28 = load ptr, ptr %17, align 8
  %29 = getelementptr inbounds i8, ptr %28, i64 8
  %30 = load i32, ptr %29, align 8
  switch i32 %30, label %31 [
    i32 9, label %.critedge
    i32 13, label %.critedge
    i32 10, label %.critedge
    i32 14, label %.critedge
    i32 6, label %.critedge
    i32 12, label %.critedge
  ]

31:                                               ; preds = %27
  %32 = load ptr, ptr %4, align 8
  %33 = getelementptr inbounds i8, ptr %32, i64 -24
  %34 = load ptr, ptr %33, align 8
  %35 = icmp eq ptr %34, null
  br i1 %35, label %40, label %48

.critedge:                                        ; preds = %27, %27, %27, %27, %27, %27
  %36 = getelementptr inbounds i8, ptr %15, i64 -16
  %37 = load ptr, ptr %36, align 8
  %38 = call i32 @dom_get_strict_error(ptr noundef %37) #10
  call void @php_dom_throw_error(i32 noundef 9, i32 noundef %38) #10
  %39 = getelementptr inbounds i8, ptr %1, i64 8
  store i32 2, ptr %39, align 8
  br label %84

40:                                               ; preds = %31
  %41 = getelementptr inbounds i8, ptr %32, i64 16
  %42 = load ptr, ptr %41, align 8
  %43 = getelementptr inbounds i8, ptr %42, i64 8
  %44 = load ptr, ptr %43, align 8
  %45 = getelementptr inbounds i8, ptr %44, i64 24
  call void (ptr, ptr, ...) @zend_throw_error(ptr noundef null, ptr noundef nonnull @.str.2, ptr noundef nonnull %45) #10
  %46 = load ptr, ptr getelementptr inbounds (%struct._zend_executor_globals, ptr @executor_globals, i64 0, i32 50), align 8
  %47 = icmp ne ptr %46, null
  call void @llvm.assume(i1 %47)
  br label %84

48:                                               ; preds = %31
  %49 = load ptr, ptr %34, align 8
  %50 = getelementptr inbounds i8, ptr %28, i64 64
  %51 = load ptr, ptr %50, align 8
  %.not.i = icmp eq ptr %51, null
  br i1 %.not.i, label %64, label %52

52:                                               ; preds = %48
  %53 = load ptr, ptr %51, align 8
  %.not27.i = icmp eq ptr %53, null
  br i1 %.not27.i, label %64, label %54

54:                                               ; preds = %52
  %55 = getelementptr inbounds i8, ptr %53, i64 16
  %56 = load ptr, ptr %55, align 8
  %.not28.i = icmp eq ptr %56, null
  br i1 %.not28.i, label %64, label %57

57:                                               ; preds = %54
  %58 = getelementptr inbounds i8, ptr %56, i64 8
  %59 = load ptr, ptr %58, align 8
  %.not29.i = icmp eq ptr %59, null
  br i1 %.not29.i, label %64, label %60

60:                                               ; preds = %57
  %61 = getelementptr inbounds i8, ptr %59, i64 16
  %62 = load i64, ptr %61, align 8
  %63 = add i64 %62, 1
  store i64 %63, ptr %61, align 8
  %.pre.i = load ptr, ptr %50, align 8
  br label %64

64:                                               ; preds = %60, %57, %54, %52, %48
  %65 = phi ptr [ %51, %54 ], [ %51, %57 ], [ %.pre.i, %60 ], [ %51, %52 ], [ null, %48 ]
  %.not30.i = icmp eq ptr %65, %49
  br i1 %.not30.i, label %78, label %66

66:                                               ; preds = %64
  %67 = getelementptr inbounds i8, ptr %32, i64 -16
  %68 = load ptr, ptr %67, align 8
  %.not31.i = icmp eq ptr %68, null
  br i1 %.not31.i, label %73, label %69

69:                                               ; preds = %66
  %70 = getelementptr inbounds i8, ptr %68, i64 16
  %71 = load i64, ptr %70, align 8
  %72 = add i64 %71, 1
  store i64 %72, ptr %70, align 8
  %.pre33.i = load ptr, ptr %50, align 8
  br label %73

73:                                               ; preds = %69, %66
  %74 = phi ptr [ %65, %66 ], [ %.pre33.i, %69 ]
  %75 = call i32 @xmlDOMWrapAdoptNode(ptr noundef null, ptr noundef %74, ptr noundef nonnull %28, ptr noundef %49, ptr noundef null, i32 noundef 0) #10
  %.not32.i = icmp eq i32 %75, 0
  br i1 %.not32.i, label %76, label %php_dom_adopt_node.exit

76:                                               ; preds = %73
  %77 = load ptr, ptr %67, align 8
  call fastcc void @php_dom_transfer_document_ref(ptr noundef nonnull %28, ptr noundef %77)
  br label %80

78:                                               ; preds = %64
  call void @xmlUnlinkNode(ptr noundef nonnull %28) #10
  br label %80

php_dom_adopt_node.exit:                          ; preds = %73
  %79 = getelementptr inbounds i8, ptr %1, i64 8
  store i32 2, ptr %79, align 8
  br label %84

80:                                               ; preds = %78, %76
  %81 = load i32, ptr %15, align 4
  %82 = add i32 %81, 1
  store i32 %82, ptr %15, align 4
  store ptr %15, ptr %1, align 8
  %83 = getelementptr inbounds i8, ptr %1, i64 8
  store i32 776, ptr %83, align 8
  br label %84

84:                                               ; preds = %80, %php_dom_adopt_node.exit, %40, %.critedge, %19, %10
  ret void
}